target datalayout = "e-m:e-p270:32:32-p271:32:32-p272:64:64-i64:64-i128:128-f80:128-n8:16:32:64-S128"
target triple = "x86_64-pc-linux-gnu"

%struct.timespec = type { i64, i64 }

@.str.39 = private unnamed_addr constant [32 x i8] c"%s %ld/%ld bytes at offset %ld\0A\00", align 1
@.str.40 = private unnamed_addr constant [42 x i8] c"%s, %d ops; %s (%s/sec and %.4f ops/sec)\0A\00", align 1
@.str.41 = private unnamed_addr constant [21 x i8] c"%ld,%d,%s,%.3f,%.3f\0A\00", align 1
@.str.42 = private unnamed_addr constant [10 x i8] c"%u:%05.2f\00", align 1
@.str.43 = private unnamed_addr constant [15 x i8] c"%u:%02u:%05.2f\00", align 1
@.str.44 = private unnamed_addr constant [11 x i8] c"%05.2f sec\00", align 1

; Function Attrs: nounwind sspstrong uwtable
define internal double @tdiv(double noundef %0, i64 %1, i64 %2) #0 {
  %4 = alloca %struct.timespec, align 8
  %5 = alloca double, align 8
  %6 = alloca double, align 8
  %7 = getelementptr inbounds nuw { i64, i64 }, ptr %4, i32 0, i32 0
  store i64 %1, ptr %7, align 8
  %8 = getelementptr inbounds nuw { i64, i64 }, ptr %4, i32 0, i32 1
  store i64 %2, ptr %8, align 8
  store double %0, ptr %5, align 8
  call void @llvm.lifetime.start.p0(i64 8, ptr %6) #18
  %9 = getelementptr inbounds nuw %struct.timespec, ptr %4, i32 0, i32 0
  %10 = load i64, ptr %9, align 8
  %11 = sitofp i64 %10 to double
  %12 = getelementptr inbounds nuw %struct.timespec, ptr %4, i32 0, i32 1
  %13 = load i64, ptr %12, align 8
  %14 = sitofp i64 %13 to double
  %15 = fdiv double %14, 1.000000e+09
  %16 = fadd double %11, %15
  store double %16, ptr %6, align 8
  %17 = load double, ptr %5, align 8
  %18 = load double, ptr %6, align 8
  %19 = fdiv double %17, %18
  call void @llvm.lifetime.end.p0(i64 8, ptr %6) #18
  ret double %19
}

; Function Attrs: nounwind sspstrong uwtable
define internal void @timestr(ptr noundef %0, ptr noundef %1, i64 noundef %2, i32 noundef %3) #0 {
  %5 = alloca ptr, align 8
  %6 = alloca ptr, align 8
  %7 = alloca i64, align 8
  %8 = alloca i32, align 4
  %9 = alloca double, align 8
  %10 = alloca i32, align 4
  store ptr %0, ptr %5, align 8
  store ptr %1, ptr %6, align 8
  store i64 %2, ptr %7, align 8
  store i32 %3, ptr %8, align 4
  call void @llvm.lifetime.start.p0(i64 8, ptr %9) #18
  %11 = load ptr, ptr %5, align 8
  %12 = getelementptr inbounds nuw %struct.timespec, ptr %11, i32 0, i32 1
  %13 = load i64, ptr %12, align 8
  %14 = sitofp i64 %13 to double
  %15 = fdiv double %14, 1.000000e+09
  store double %15, ptr %9, align 8
  %16 = load i32, ptr %8, align 4
  %17 = and i32 %16, 1
  %18 = icmp ne i32 %17, 0
  br i1 %18, label %19, label %47

19:                                               ; preds = %4
  %20 = load ptr, ptr %5, align 8
  %21 = getelementptr inbounds nuw %struct.timespec, ptr %20, i32 0, i32 0
  %22 = load i64, ptr %21, align 8
  %23 = sdiv i64 %22, 3600
  %24 = icmp ne i64 %23, 0
  br i1 %24, label %44, label %25

25:                                               ; preds = %19
  %26 = load ptr, ptr %6, align 8
  %27 = load i64, ptr %7, align 8
  %28 = load ptr, ptr %6, align 8
  %29 = call i64 @llvm.objectsize.i64.p0(ptr %28, i1 false, i1 true, i1 false)
  %30 = load ptr, ptr %5, align 8
  %31 = getelementptr inbounds nuw %struct.timespec, ptr %30, i32 0, i32 0
  %32 = load i64, ptr %31, align 8
  %33 = srem i64 %32, 3600
  %34 = sdiv i64 %33, 60
  %35 = trunc i64 %34 to i32
  %36 = load ptr, ptr %5, align 8
  %37 = getelementptr inbounds nuw %struct.timespec, ptr %36, i32 0, i32 0
  %38 = load i64, ptr %37, align 8
  %39 = srem i64 %38, 60
  %40 = sitofp i64 %39 to double
  %41 = load double, ptr %9, align 8
  %42 = fadd double %40, %41
  %43 = call i32 (ptr, i64, i32, i64, ptr, ...) @__snprintf_chk(ptr noundef %26, i64 noundef %27, i32 noundef 1, i64 noundef %29, ptr noundef @.str.42, i32 noundef %35, double noundef %42)
  store i32 1, ptr %10, align 4
  br label %88

44:                                               ; preds = %19
  %45 = load i32, ptr %8, align 4
  %46 = or i32 %45, 2
  store i32 %46, ptr %8, align 4
  br label %47

47:                                               ; preds = %44, %4
  %48 = load i32, ptr %8, align 4
  %49 = and i32 %48, 2
  %50 = icmp ne i32 %49, 0
  br i1 %50, label %56, label %51

51:                                               ; preds = %47
  %52 = load ptr, ptr %5, align 8
  %53 = getelementptr inbounds nuw %struct.timespec, ptr %52, i32 0, i32 0
  %54 = load i64, ptr %53, align 8
  %55 = icmp ne i64 %54, 0
  br i1 %55, label %56, label %80

56:                                               ; preds = %51, %47
  %57 = load ptr, ptr %6, align 8
  %58 = load i64, ptr %7, align 8
  %59 = load ptr, ptr %6, align 8
  %60 = call i64 @llvm.objectsize.i64.p0(ptr %59, i1 false, i1 true, i1 false)
  %61 = load ptr, ptr %5, align 8
  %62 = getelementptr inbounds nuw %struct.timespec, ptr %61, i32 0, i32 0
  %63 = load i64, ptr %62, align 8
  %64 = sdiv i64 %63, 3600
  %65 = trunc i64 %64 to i32
  %66 = load ptr, ptr %5, align 8
  %67 = getelementptr inbounds nuw %struct.timespec, ptr %66, i32 0, i32 0
  %68 = load i64, ptr %67, align 8
  %69 = srem i64 %68, 3600
  %70 = sdiv i64 %69, 60
  %71 = trunc i64 %70 to i32
  %72 = load ptr, ptr %5, align 8
  %73 = getelementptr inbounds nuw %struct.timespec, ptr %72, i32 0, i32 0
  %74 = load i64, ptr %73, align 8
  %75 = srem i64 %74, 60
  %76 = sitofp i64 %75 to double
  %77 = load double, ptr %9, align 8
  %78 = fadd double %76, %77
  %79 = call i32 (ptr, i64, i32, i64, ptr, ...) @__snprintf_chk(ptr noundef %57, i64 noundef %58, i32 noundef 1, i64 noundef %60, ptr noundef @.str.43, i32 noundef %65, i32 noundef %71, double noundef %78)
  br label %87

80:                                               ; preds = %51
  %81 = load ptr, ptr %6, align 8
  %82 = load i64, ptr %7, align 8
  %83 = load ptr, ptr %6, align 8
  %84 = call i64 @llvm.objectsize.i64.p0(ptr %83, i1 false, i1 true, i1 false)
  %85 = load double, ptr %9, align 8
  %86 = call i32 (ptr, i64, i32, i64, ptr, ...) @__snprintf_chk(ptr noundef %81, i64 noundef %82, i32 noundef 1, i64 noundef %84, ptr noundef @.str.44, double noundef %85)
  br label %87

87:                                               ; preds = %80, %56
  store i32 0, ptr %10, align 4
  br label %88

88:                                               ; preds = %87, %25
  call void @llvm.lifetime.end.p0(i64 8, ptr %9) #18
  %89 = load i32, ptr %10, align 4
  switch i32 %89, label %91 [
    i32 0, label %90
    i32 1, label %90
  ]

90:                                               ; preds = %88, %88
  ret void

91:                                               ; preds = %88
  unreachable
}

; Function Attrs: nounwind sspstrong uwtable
define internal void @print_report(ptr noundef %0, ptr noundef %1, i64 noundef %2, i64 noundef %3, i64 noundef %4, i32 noundef %5, i1 noundef zeroext %6) #0 {
  %8 = alloca ptr, align 8
  %9 = alloca ptr, align 8
  %10 = alloca i64, align 8
  %11 = alloca i64, align 8
  %12 = alloca i64, align 8
  %13 = alloca i32, align 4
  %14 = alloca i8, align 1
  %15 = alloca [64 x i8], align 16
  %16 = alloca [64 x i8], align 16
  %17 = alloca [64 x i8], align 16
  store ptr %0, ptr %8, align 8
  store ptr %1, ptr %9, align 8
  store i64 %2, ptr %10, align 8
  store i64 %3, ptr %11, align 8
  store i64 %4, ptr %12, align 8
  store i32 %5, ptr %13, align 4
  %18 = zext i1 %6 to i8
  store i8 %18, ptr %14, align 1
  call void @llvm.lifetime.start.p0(i64 64, ptr %15) #18
  call void @llvm.memset.p0.i64(ptr align 16 %15, i8 0, i64 64, i1 false), !annotation !4
  call void @llvm.lifetime.start.p0(i64 64, ptr %16) #18
  call void @llvm.memset.p0.i64(ptr align 16 %16, i8 0, i64 64, i1 false), !annotation !4
  call void @llvm.lifetime.start.p0(i64 64, ptr %17) #18
  call void @llvm.memset.p0.i64(ptr align 16 %17, i8 0, i64 64, i1 false), !annotation !4
  %19 = load ptr, ptr %9, align 8
  %20 = getelementptr inbounds [64 x i8], ptr %17, i64 0, i64 0
  %21 = load i8, ptr %14, align 1, !range !11, !noundef !12
  %22 = trunc i8 %21 to i1
  %23 = select i1 %22, i32 2, i32 0
  call void @timestr(ptr noundef %19, ptr noundef %20, i64 noundef 64, i32 noundef %23)
  %24 = load i8, ptr %14, align 1, !range !11, !noundef !12
  %25 = trunc i8 %24 to i1
  br i1 %25, label %57, label %26

26:                                               ; preds = %7
  %27 = load i64, ptr %12, align 8
  %28 = sitofp i64 %27 to double
  %29 = getelementptr inbounds [64 x i8], ptr %15, i64 0, i64 0
  call void @cvtstr(double noundef %28, ptr noundef %29, i64 noundef 64)
  %30 = load i64, ptr %12, align 8
  %31 = sitofp i64 %30 to double
  %32 = load ptr, ptr %9, align 8
  %33 = getelementptr inbounds nuw { i64, i64 }, ptr %32, i32 0, i32 0
  %34 = load i64, ptr %33, align 8
  %35 = getelementptr inbounds nuw { i64, i64 }, ptr %32, i32 0, i32 1
  %36 = load i64, ptr %35, align 8
  %37 = call double @tdiv(double noundef %31, i64 %34, i64 %36)
  %38 = getelementptr inbounds [64 x i8], ptr %16, i64 0, i64 0
  call void @cvtstr(double noundef %37, ptr noundef %38, i64 noundef 64)
  %39 = load ptr, ptr %8, align 8
  %40 = load i64, ptr %12, align 8
  %41 = load i64, ptr %11, align 8
  %42 = load i64, ptr %10, align 8
  %43 = call i32 (i32, ptr, ...) @__printf_chk(i32 noundef 1, ptr noundef @.str.39, ptr noundef %39, i64 noundef %40, i64 noundef %41, i64 noundef %42)
  %44 = getelementptr inbounds [64 x i8], ptr %15, i64 0, i64 0
  %45 = load i32, ptr %13, align 4
  %46 = getelementptr inbounds [64 x i8], ptr %17, i64 0, i64 0
  %47 = getelementptr inbounds [64 x i8], ptr %16, i64 0, i64 0
  %48 = load i32, ptr %13, align 4
  %49 = sitofp i32 %48 to double
  %50 = load ptr, ptr %9, align 8
  %51 = getelementptr inbounds nuw { i64, i64 }, ptr %50, i32 0, i32 0
  %52 = load i64, ptr %51, align 8
  %53 = getelementptr inbounds nuw { i64, i64 }, ptr %50, i32 0, i32 1
  %54 = load i64, ptr %53, align 8
  %55 = call double @tdiv(double noundef %49, i64 %52, i64 %54)
  %56 = call i32 (i32, ptr, ...) @__printf_chk(i32 noundef 1, ptr noundef @.str.40, ptr noundef %44, i32 noundef %45, ptr noundef %46, ptr noundef %47, double noundef %55)
  br label %78

57:                                               ; preds = %7
  %58 = load i64, ptr %12, align 8
  %59 = load i32, ptr %13, align 4
  %60 = getelementptr inbounds [64 x i8], ptr %17, i64 0, i64 0
  %61 = load i64, ptr %12, align 8
  %62 = sitofp i64 %61 to double
  %63 = load ptr, ptr %9, align 8
  %64 = getelementptr inbounds nuw { i64, i64 }, ptr %63, i32 0, i32 0
  %65 = load i64, ptr %64, align 8
  %66 = getelementptr inbounds nuw { i64, i64 }, ptr %63, i32 0, i32 1
  %67 = load i64, ptr %66, align 8
  %68 = call double @tdiv(double noundef %62, i64 %65, i64 %67)
  %69 = load i32, ptr %13, align 4
  %70 = sitofp i32 %69 to double
  %71 = load ptr, ptr %9, align 8
  %72 = getelementptr inbounds nuw { i64, i64 }, ptr %71, i32 0, i32 0
  %73 = load i64, ptr %72, align 8
  %74 = getelementptr inbounds nuw { i64, i64 }, ptr %71, i32 0, i32 1
  %75 = load i64, ptr %74, align 8
  %76 = call double @tdiv(double noundef %70, i64 %73, i64 %75)
  %77 = call i32 (i32, ptr, ...) @__printf_chk(i32 noundef 1, ptr noundef @.str.41, i64 noundef %58, i32 noundef %59, ptr noundef %60, double noundef %68, double noundef %76)
  br label %78

78:                                               ; preds = %57, %26
  call void @llvm.lifetime.end.p0(i64 64, ptr %17) #18
  call void @llvm.lifetime.end.p0(i64 64, ptr %16) #18
  call void @llvm.lifetime.end.p0(i64 64, ptr %15) #18
  ret void
}