; Function Attrs: nounwind sspstrong uwtable
define internal fastcc void @print_report(ptr noundef %0, ptr noundef nonnull readonly captures(none) %1, i64 noundef %2, i64 noundef %3, i64 noundef %4, i32 noundef range(i32 0, -2147483648) %5, i1 noundef zeroext %6) unnamed_addr #0 {
  %8 = alloca [64 x i8], align 16
  %9 = alloca [64 x i8], align 16
  %10 = alloca [64 x i8], align 16
  call void @llvm.lifetime.start.p0(i64 64, ptr nonnull %8) #26
  call void @llvm.memset.p0.i64(ptr noundef nonnull align 16 dereferenceable(64) %8, i8 0, i64 64, i1 false), !annotation !8
  call void @llvm.lifetime.start.p0(i64 64, ptr nonnull %9) #26
  call void @llvm.memset.p0.i64(ptr noundef nonnull align 16 dereferenceable(64) %9, i8 0, i64 64, i1 false), !annotation !8
  call void @llvm.lifetime.start.p0(i64 64, ptr nonnull %10) #26
  call void @llvm.memset.p0.i64(ptr noundef nonnull align 16 dereferenceable(64) %10, i8 0, i64 64, i1 false), !annotation !8
  %11 = getelementptr inbounds nuw i8, ptr %1, i64 8
  %12 = load i64, ptr %11, align 8
  %13 = sitofp i64 %12 to double
  %14 = fdiv double %13, 1.000000e+09
  %.pre.i = load i64, ptr %1, align 8
  %.not24.i = icmp ne i64 %.pre.i, 0
  %or.cond.i.not = select i1 %6, i1 true, i1 %.not24.i
  br i1 %or.cond.i.not, label %.thread.i, label %24

.thread.i:                                        ; preds = %7
  %15 = sdiv i64 %.pre.i, 3600
  %16 = trunc i64 %15 to i32
  %17 = srem i64 %.pre.i, 3600
  %.lhs.trunc.i = trunc nsw i64 %17 to i16
  %18 = sdiv i16 %.lhs.trunc.i, 60
  %19 = sext i16 %18 to i32
  %20 = srem i64 %.pre.i, 60
  %21 = sitofp i64 %20 to double
  %22 = fadd double %14, %21
  %23 = call i32 (ptr, i64, i32, i64, ptr, ...) @__snprintf_chk(ptr noundef nonnull %10, i64 noundef 64, i32 noundef 1, i64 noundef 64, ptr noundef nonnull @.str.43, i32 noundef %16, i32 noundef %19, double noundef %22) #26
  br label %timestr.exit

24:                                               ; preds = %7
  %25 = call i32 (ptr, i64, i32, i64, ptr, ...) @__snprintf_chk(ptr noundef nonnull %10, i64 noundef 64, i32 noundef 1, i64 noundef 64, ptr noundef nonnull @.str.44, double noundef %14) #26
  br label %timestr.exit

timestr.exit:                                     ; preds = %.thread.i, %24
  %26 = sitofp i64 %4 to double
  br i1 %6, label %45, label %27

27:                                               ; preds = %timestr.exit
  call fastcc void @cvtstr(double noundef %26, ptr noundef %8)
  %28 = load i64, ptr %1, align 8
  %29 = load i64, ptr %11, align 8
  %30 = sitofp i64 %28 to double
  %31 = sitofp i64 %29 to double
  %32 = fdiv double %31, 1.000000e+09
  %33 = fadd double %32, %30
  %34 = fdiv double %26, %33
  call fastcc void @cvtstr(double noundef %34, ptr noundef %9)
  %35 = call i32 (i32, ptr, ...) @__printf_chk(i32 noundef 1, ptr noundef nonnull @.str.39, ptr noundef %0, i64 noundef %4, i64 noundef %3, i64 noundef %2) #26
  %36 = uitofp nneg i32 %5 to double
  %37 = load i64, ptr %1, align 8
  %38 = load i64, ptr %11, align 8
  %39 = sitofp i64 %37 to double
  %40 = sitofp i64 %38 to double
  %41 = fdiv double %40, 1.000000e+09
  %42 = fadd double %41, %39
  %43 = fdiv double %36, %42
  %44 = call i32 (i32, ptr, ...) @__printf_chk(i32 noundef 1, ptr noundef nonnull @.str.40, ptr noundef nonnull %8, i32 noundef %5, ptr noundef nonnull %10, ptr noundef nonnull %9, double noundef %43) #26
  br label %56

45:                                               ; preds = %timestr.exit
  %46 = load i64, ptr %1, align 8
  %47 = load i64, ptr %11, align 8
  %48 = sitofp i64 %46 to double
  %49 = sitofp i64 %47 to double
  %50 = fdiv double %49, 1.000000e+09
  %51 = fadd double %50, %48
  %52 = fdiv double %26, %51
  %53 = uitofp nneg i32 %5 to double
  %54 = fdiv double %53, %51
  %55 = call i32 (i32, ptr, ...) @__printf_chk(i32 noundef 1, ptr noundef nonnull @.str.41, i64 noundef %4, i32 noundef %5, ptr noundef nonnull %10, double noundef %52, double noundef %54) #26
  br label %56

56:                                               ; preds = %45, %27
  call void @llvm.lifetime.end.p0(i64 64, ptr nonnull %10) #26
  call void @llvm.lifetime.end.p0(i64 64, ptr nonnull %9) #26
  call void @llvm.lifetime.end.p0(i64 64, ptr nonnull %8) #26
  ret void
}